target datalayout = "e-m:e-p270:32:32-p271:32:32-p272:64:64-i64:64-i128:128-f80:128-n8:16:32:64-S128"
target triple = "x86_64-pc-linux-gnu"

%struct.H5HF_hdr_t = type { %struct.H5C_cache_entry_t, i32, i32, i8, i8, i8, i8, %struct.H5HF_dtable_t, i64, i64, i32, i64, i64, %struct.H5O_pline_t, i64, i32, i64, i64, i64, i64, i64, i64, i64, i64, i64, i64, i64, i32, ptr, i64, i8, i8, i8, ptr, i32, ptr, %struct.H5HF_block_iter_t, ptr, i64, i8, i8, i64, i8, i8, i8, i8 }
%struct.H5C_cache_entry_t = type { ptr, i64, i64, ptr, i8, ptr, i8, i8, i8, i8, i32, i8, i8, i8, i8, i8, i32, ptr, i32, i32, i32, i32, i32, i8, i8, ptr, ptr, ptr, ptr, ptr, ptr, i8, i32, i8, i64, ptr, i64, i64, i32, i8, i32, i32, i8, ptr, ptr, ptr }
%struct.H5HF_dtable_t = type { %struct.H5HF_dtable_cparam_t, i64, i32, i32, i32, i32, i32, i32, i32, i64, ptr, ptr, ptr, ptr }
%struct.H5HF_dtable_cparam_t = type { i32, i64, i64, i32, i32 }
%struct.H5O_pline_t = type { %struct.H5O_shared_t, i32, i64, i64, ptr }
%struct.H5O_shared_t = type { i32, ptr, i32, %union.anon }
%union.anon = type { %struct.H5O_mesg_loc_t }
%struct.H5O_mesg_loc_t = type { i32, i64 }
%struct.H5HF_block_iter_t = type { i8, ptr }
%struct.H5HF_indirect_t = type { %struct.H5C_cache_entry_t, i64, ptr, ptr, ptr, i32, i64, i64, i32, i32, i32, i32, ptr, i8, i64, ptr, ptr }
%struct.H5HF_indirect_filt_ent_t = type { i64, i32 }
%struct.H5HF_direct_t = type { %struct.H5C_cache_entry_t, ptr, ptr, ptr, i32, i64, i64, ptr, ptr, i64, i64 }

@H5HF_init_g = external global i8, align 1
@H5_libterm_g = external global i8, align 1

; Function Attrs: nounwind uwtable
define internal i32 @H5HF__cache_dblock_image_len(ptr noundef %0, ptr noundef %1) #0 {
  %3 = alloca ptr, align 8
  %4 = alloca ptr, align 8
  %5 = alloca ptr, align 8
  %6 = alloca ptr, align 8
  %7 = alloca i64, align 8
  %8 = alloca ptr, align 8
  store ptr %0, ptr %3, align 8, !tbaa !3
  store ptr %1, ptr %4, align 8, !tbaa !7
  call void @llvm.lifetime.start.p0(i64 8, ptr %5) #8
  %9 = load ptr, ptr %3, align 8, !tbaa !3
  store ptr %9, ptr %5, align 8, !tbaa !169
  call void @llvm.lifetime.start.p0(i64 8, ptr %6) #8
  call void @llvm.lifetime.start.p0(i64 8, ptr %7) #8
  %10 = load i8, ptr @H5HF_init_g, align 1, !tbaa !11, !range !13, !noundef !14
  %11 = trunc i8 %10 to i1
  br i1 %11, label %16, label %12

12:                                               ; preds = %2
  %13 = load i8, ptr @H5_libterm_g, align 1, !tbaa !11, !range !13, !noundef !14
  %14 = trunc i8 %13 to i1
  %15 = xor i1 %14, true
  br label %16

16:                                               ; preds = %12, %2
  %17 = phi i1 [ true, %2 ], [ %15, %12 ]
  %18 = xor i1 %17, true
  %19 = xor i1 %18, true
  %20 = zext i1 %19 to i32
  %21 = sext i32 %20 to i64
  %22 = call i64 @llvm.expect.i64(i64 %21, i64 1)
  %23 = icmp ne i64 %22, 0
  br i1 %23, label %24, label %78

24:                                               ; preds = %16
  %25 = load ptr, ptr %5, align 8, !tbaa !169
  %26 = getelementptr inbounds nuw %struct.H5HF_direct_t, ptr %25, i32 0, i32 1
  %27 = load ptr, ptr %26, align 8, !tbaa !172
  store ptr %27, ptr %6, align 8, !tbaa !47
  %28 = load ptr, ptr %6, align 8, !tbaa !47
  %29 = getelementptr inbounds nuw %struct.H5HF_hdr_t, ptr %28, i32 0, i32 2
  %30 = load i32, ptr %29, align 4, !tbaa !44
  %31 = icmp ugt i32 %30, 0
  br i1 %31, label %32, label %71

32:                                               ; preds = %24
  %33 = load ptr, ptr %5, align 8, !tbaa !169
  %34 = getelementptr inbounds nuw %struct.H5HF_direct_t, ptr %33, i32 0, i32 6
  %35 = load i64, ptr %34, align 8, !tbaa !181
  %36 = icmp ne i64 %35, 0
  br i1 %36, label %37, label %41

37:                                               ; preds = %32
  %38 = load ptr, ptr %5, align 8, !tbaa !169
  %39 = getelementptr inbounds nuw %struct.H5HF_direct_t, ptr %38, i32 0, i32 6
  %40 = load i64, ptr %39, align 8, !tbaa !181
  store i64 %40, ptr %7, align 8, !tbaa !40
  br label %70

41:                                               ; preds = %32
  call void @llvm.lifetime.start.p0(i64 8, ptr %8) #8
  %42 = load ptr, ptr %5, align 8, !tbaa !169
  %43 = getelementptr inbounds nuw %struct.H5HF_direct_t, ptr %42, i32 0, i32 2
  %44 = load ptr, ptr %43, align 8, !tbaa !176
  store ptr %44, ptr %8, align 8, !tbaa !119
  %45 = load ptr, ptr %8, align 8, !tbaa !119
  %46 = icmp ne ptr %45, null
  br i1 %46, label %47, label %58

47:                                               ; preds = %41
  %48 = load ptr, ptr %8, align 8, !tbaa !119
  %49 = getelementptr inbounds nuw %struct.H5HF_indirect_t, ptr %48, i32 0, i32 16
  %50 = load ptr, ptr %49, align 8, !tbaa !141
  %51 = load ptr, ptr %5, align 8, !tbaa !169
  %52 = getelementptr inbounds nuw %struct.H5HF_direct_t, ptr %51, i32 0, i32 4
  %53 = load i32, ptr %52, align 8, !tbaa !178
  %54 = zext i32 %53 to i64
  %55 = getelementptr inbounds nuw %struct.H5HF_indirect_filt_ent_t, ptr %50, i64 %54
  %56 = getelementptr inbounds nuw %struct.H5HF_indirect_filt_ent_t, ptr %55, i32 0, i32 0
  %57 = load i64, ptr %56, align 8, !tbaa !142
  store i64 %57, ptr %7, align 8, !tbaa !40
  br label %62

58:                                               ; preds = %41
  %59 = load ptr, ptr %6, align 8, !tbaa !47
  %60 = getelementptr inbounds nuw %struct.H5HF_hdr_t, ptr %59, i32 0, i32 14
  %61 = load i64, ptr %60, align 8, !tbaa !75
  store i64 %61, ptr %7, align 8, !tbaa !40
  br label %62

62:                                               ; preds = %58, %47
  %63 = load i64, ptr %7, align 8, !tbaa !40
  %64 = icmp eq i64 %63, 0
  br i1 %64, label %65, label %69

65:                                               ; preds = %62
  %66 = load ptr, ptr %5, align 8, !tbaa !169
  %67 = getelementptr inbounds nuw %struct.H5HF_direct_t, ptr %66, i32 0, i32 5
  %68 = load i64, ptr %67, align 8, !tbaa !174
  store i64 %68, ptr %7, align 8, !tbaa !40
  br label %69

69:                                               ; preds = %65, %62
  call void @llvm.lifetime.end.p0(i64 8, ptr %8) #8
  br label %70

70:                                               ; preds = %69, %37
  br label %75

71:                                               ; preds = %24
  %72 = load ptr, ptr %5, align 8, !tbaa !169
  %73 = getelementptr inbounds nuw %struct.H5HF_direct_t, ptr %72, i32 0, i32 5
  %74 = load i64, ptr %73, align 8, !tbaa !174
  store i64 %74, ptr %7, align 8, !tbaa !40
  br label %75

75:                                               ; preds = %71, %70
  %76 = load i64, ptr %7, align 8, !tbaa !40
  %77 = load ptr, ptr %4, align 8, !tbaa !7
  store i64 %76, ptr %77, align 8, !tbaa !40
  br label %78

78:                                               ; preds = %75, %16
  call void @llvm.lifetime.end.p0(i64 8, ptr %7) #8
  call void @llvm.lifetime.end.p0(i64 8, ptr %6) #8
  call void @llvm.lifetime.end.p0(i64 8, ptr %5) #8
  ret i32 0
}