; Function Attrs: mustprogress nofree norecurse nosync nounwind willreturn memory(read, argmem: readwrite, inaccessiblemem: none) uwtable
define internal noundef i32 @H5HF__cache_dblock_image_len(ptr noundef readonly captures(none) %0, ptr noundef writeonly captures(none) %1) #1 {
  %3 = load i8, ptr @H5HF_init_g, align 1, !tbaa !3, !range !7, !noundef !8
  %4 = trunc nuw i8 %3 to i1
  %5 = load i8, ptr @H5_libterm_g, align 1, !range !7
  %6 = trunc nuw i8 %5 to i1
  %7 = xor i1 %6, true
  %8 = select i1 %4, i1 true, i1 %7
  br i1 %8, label %9, label %34, !prof !9

9:                                                ; preds = %2
  %10 = getelementptr inbounds nuw i8, ptr %0, i64 248
  %11 = load ptr, ptr %10, align 8, !tbaa !149
  %12 = getelementptr inbounds nuw i8, ptr %11, i64 252
  %13 = load i32, ptr %12, align 4, !tbaa !75
  %.not = icmp eq i32 %13, 0
  br i1 %.not, label %.sink.split, label %14

14:                                               ; preds = %9
  %15 = getelementptr inbounds nuw i8, ptr %0, i64 288
  %16 = load i64, ptr %15, align 8, !tbaa !159
  %.not16 = icmp eq i64 %16, 0
  br i1 %.not16, label %17, label %33

17:                                               ; preds = %14
  %18 = getelementptr inbounds nuw i8, ptr %0, i64 256
  %19 = load ptr, ptr %18, align 8, !tbaa !154
  %.not17 = icmp eq ptr %19, null
  br i1 %.not17, label %27, label %20

20:                                               ; preds = %17
  %21 = getelementptr inbounds nuw i8, ptr %19, i64 352
  %22 = load ptr, ptr %21, align 8, !tbaa !128
  %23 = getelementptr inbounds nuw i8, ptr %0, i64 272
  %24 = load i32, ptr %23, align 8, !tbaa !156
  %25 = zext i32 %24 to i64
  %26 = getelementptr inbounds nuw %struct.H5HF_indirect_filt_ent_t, ptr %22, i64 %25
  br label %29

27:                                               ; preds = %17
  %28 = getelementptr inbounds nuw i8, ptr %11, i64 488
  br label %29

29:                                               ; preds = %27, %20
  %.0.in = phi ptr [ %26, %20 ], [ %28, %27 ]
  %.0 = load i64, ptr %.0.in, align 8, !tbaa !14
  %30 = icmp eq i64 %.0, 0
  br i1 %30, label %.sink.split, label %33

.sink.split:                                      ; preds = %9, %29
  %31 = getelementptr inbounds nuw i8, ptr %0, i64 280
  %32 = load i64, ptr %31, align 8, !tbaa !152
  br label %33

33:                                               ; preds = %.sink.split, %29, %14
  %.2 = phi i64 [ %16, %14 ], [ %.0, %29 ], [ %32, %.sink.split ]
  store i64 %.2, ptr %1, align 8, !tbaa !14
  br label %34

34:                                               ; preds = %33, %2
  ret i32 0
}